Microchip MPLAB XC8 Compiler V2.32

Linker command line:

-W-3 --edf=C:\Program Files\Microchip\xc8\v2.32\pic\dat\en_msgs.txt -cn \
  -h+dist/default/production\Nokia5110.X.production.sym \
  --cmf=dist/default/production\Nokia5110.X.production.cmf -z -Q16F877A \
  -oC:\Users\nghia\AppData\Local\Temp\xcAs5r0.4 --defsym=__MPLAB_BUILD=1 \
  -Mdist/default/production/Nokia5110.X.production.map -E1 \
  -ver=XC8 Compiler --acfsm=1493 -ASTACK=0110h-016Fh -pstack=STACK \
  -ACODE=00h-07FFhx4 -ASTRCODE=00h-01FFFh -ASTRING=00h-0FFhx32 \
  -ACONST=00h-0FFhx32 -AENTRY=00h-0FFhx32 -ACOMMON=070h-07Fh \
  -ABANK0=020h-06Fh -ABANK1=0A0h-0EFh -ABANK2=0110h-016Fh \
  -ABANK3=0190h-01EFh -ARAM=020h-06Fh,0A0h-0EFh,0110h-016Fh,0190h-01EFh \
  -AABS1=020h-07Fh,0A0h-0EFh,0110h-016Fh,0190h-01EFh -ASFR0=00h-01Fh \
  -ASFR1=080h-09Fh -ASFR2=0100h-010Fh -ASFR3=0180h-018Fh \
  -ACONFIG=02007h-02007h -DCONFIG=2 -AIDLOC=02000h-02003h -DIDLOC=2 \
  -AEEDATA=00h-0FFh/02100h -peeprom_data=EEDATA -DEEDATA=2 -DCODE=2 \
  -DSTRCODE=2 -DSTRING=2 -DCONST=2 -DENTRY=2 \
  -preset_vec=00h,intentry,init,end_init -ppowerup=CODE -pcinit=CODE \
  -pfunctab=ENTRY -k C:\Users\nghia\AppData\Local\Temp\xcAs5r0.o \
  dist/default/production\Nokia5110.X.production.o 

Object code version is 3.11

Machine type is 16F877A



                Name                               Link     Load   Length Selector   Space Scale
C:\Users\nghia\AppData\Local\Temp\xcAs5r0.o
                end_init                              0        0        3        0       0
                config                             2007     2007        1        0       4
dist/default/production\Nokia5110.X.production.o
                cinit                               7EC      7EC       14      FD8       0
                config                             2007     2007        1        0       4
                text13                              2DB      2DB        5      5B6       0
                text12                              341      341       25      682       0
                text11                              31E      31E       10      63C       0
                text10                              2E0      2E0        B      5C0       0
                text9                               366      366       2E      6CC       0
                text8                               2EB      2EB        C      5D6       0
                text7                               6BF      6BF      12D      D7E       0
                text6                               4C1      4C1       FF      982       0
                text5                               5C0      5C0       FF      B80       0
                text4                               310      310        E      620       0
                text3                               303      303        D      606       0
                text2                               394      394       33      728       0
                text1                               3C7      3C7       77      78E       0
                maintext                            43E      43E       83      87C       0
                cstackBANK0                          20       20       19       20       1
                cstackCOMMON                         70       70        C       70       1
                inittext                            32E      32E       13      65C       0
                dataBANK0                            39       39        C       20       1
                bssBANK0                             45       45        2       20       1
                stringtext                          800      800      293       10       0
                idataBANK0                          2F7      2F7        C      5EE       0

TOTAL           Name                               Link     Load   Length     Space
        CLASS   STACK          

        CLASS   CODE           
                end_init                              0        0        3         0
                cinit                               7EC      7EC       14         0
                text13                              2DB      2DB        5         0
                text12                              341      341       25         0
                text11                              31E      31E       10         0
                text10                              2E0      2E0        B         0
                text9                               366      366       2E         0
                text8                               2EB      2EB        C         0
                text7                               6BF      6BF      12D         0
                text6                               4C1      4C1       FF         0
                text5                               5C0      5C0       FF         0
                text4                               310      310        E         0
                text3                               303      303        D         0
                text2                               394      394       33         0
                text1                               3C7      3C7       77         0
                maintext                            43E      43E       83         0
                inittext                            32E      32E       13         0
                idataBANK0                          2F7      2F7        C         0

        CLASS   STRCODE        
                stringtext                          800      800      293         0

        CLASS   STRING         

        CLASS   CONST          

        CLASS   ENTRY          

        CLASS   COMMON         
                cstackCOMMON                         70       70        C         1

        CLASS   BANK0          
                cstackBANK0                          20       20       19         1
                dataBANK0                            39       39        C         1
                bssBANK0                             45       45        2         1

        CLASS   BANK1          

        CLASS   BANK2          

        CLASS   BANK3          

        CLASS   RAM            

        CLASS   ABS1           
                abs_s1                               7E       7E        2         1

        CLASS   SFR0           

        CLASS   SFR1           

        CLASS   SFR2           

        CLASS   SFR3           

        CLASS   CONFIG         
                config                             2007     2007        1         4

        CLASS   IDLOC          

        CLASS   EEDATA         



SEGMENTS        Name                           Load    Length   Top    Selector   Space  Class     Delta

                reset_vec                      000000  000003  000003         0       0  CODE        2
                cstackBANK0                    000020  000027  000047        20       1  BANK0       1
                cstackCOMMON                   000070  00000C  00007C        70       1  COMMON      1
                text13                         0002DB  000005  0002E0       5B6       0  CODE        2
                text10                         0002E0  00000B  0002EB       5C0       0  CODE        2
                text8                          0002EB  00000C  0002F7       5D6       0  CODE        2
                idataBANK0                     0002F7  00000C  000303       5EE       0  CODE        2
                text3                          000303  00000D  000310       606       0  CODE        2
                text4                          000310  00000E  00031E       620       0  CODE        2
                text11                         00031E  000010  00032E       63C       0  CODE        2
                inittext                       00032E  000013  000341       65C       0  CODE        2
                text12                         000341  000025  000366       682       0  CODE        2
                text9                          000366  00002E  000394       6CC       0  CODE        2
                text2                          000394  000033  0003C7       728       0  CODE        2
                text1                          0003C7  000077  00043E       78E       0  CODE        2
                maintext                       00043E  000083  0004C1       87C       0  CODE        2
                text6                          0004C1  0000FF  0005C0       982       0  CODE        2
                text5                          0005C0  0000FF  0006BF       B80       0  CODE        2
                text7                          0006BF  00012D  0007EC       D7E       0  CODE        2
                cinit                          0007EC  000014  000800       FD8       0  CODE        2
                stringtext                     000800  000293  000A93        10       0  STRCODE     2


UNUSED ADDRESS RANGES

        Name                Unused          Largest block    Delta
        BANK0            0047-006F             29           1
        BANK1            00A0-00EF             50           1
        BANK2            0110-016F             60           1
        BANK3            0190-01EF             60           1
        CODE             0003-02DA            2D8           2
                         0A93-1FFF            800
        COMMON           007C-007D              2           1
        CONST            0003-02DA            100           2
                         0A93-1FFF            100
        EEDATA           2100-21FF            100           2
        ENTRY            0003-02DA            100           2
                         0A93-1FFF            100
        IDLOC            2000-2003              4           2
        RAM              0047-006F             29           1
                         00A0-00EF             50
                         0110-016F             60
                         0190-01EF             60
        SFR0             0000-001F             20           1
        SFR1             0080-009F             20           1
        SFR2             0100-010F             10           1
        SFR3             0180-018F             10           1
        STACK            0110-016F             60           1
        STRCODE          0003-02DA            2D8           2
                         0A93-1FFF           156D
        STRING           0003-02DA            100           2
                         0A93-1FFF            100

                                  Symbol Table

?___wmul                     cstackCOMMON 0070
_ASCII                       stringtext   0812
_BF                          (abs)        04A0
_RA5                         (abs)        002D
_RB0                         (abs)        0030
_RB1                         (abs)        0031
_RC0                         (abs)        0038
_RC1                         (abs)        0039
_SSPBUF                      (abs)        0013
_SSPCON                      (abs)        0014
_SSPSTAT                     (abs)        0094
_TRISA5                      (abs)        042D
_TRISB0                      (abs)        0430
_TRISB1                      (abs)        0431
_TRISC0                      (abs)        0438
_TRISC1                      (abs)        0439
_TRISC3                      (abs)        043B
_TRISC4                      (abs)        043C
_TRISC5                      (abs)        043D
__Habs1                      abs1         0000
__Hbank0                     bank0        0000
__Hbank1                     bank1        0000
__Hbank2                     bank2        0000
__Hbank3                     bank3        0000
__HbssBANK0                  bssBANK0     0000
__Hcinit                     cinit        0800
__Hclrtext                   clrtext      0000
__Hcode                      code         0000
__Hcommon                    common       0000
__Hconfig                    config       2008
__HcstackBANK0               cstackBANK0  0000
__HcstackCOMMON              cstackCOMMON 0000
__HdataBANK0                 dataBANK0    0000
__Heeprom_data               eeprom_data  0000
__Hend_init                  end_init     0003
__Hfunctab                   functab      0000
__HidataBANK0                idataBANK0   0000
__Hinit                      init         0000
__Hinittext                  inittext     0000
__Hintentry                  intentry     0000
__Hmaintext                  maintext     0000
__Hpowerup                   powerup      0000
__Hram                       ram          0000
__Hreset_vec                 reset_vec    0000
__Hsfr0                      sfr0         0000
__Hsfr1                      sfr1         0000
__Hsfr2                      sfr2         0000
__Hsfr3                      sfr3         0000
__Hspace_0                   (abs)        0A93
__Hspace_1                   (abs)        007C
__Hspace_2                   (abs)        0000
__Hspace_3                   (abs)        0000
__Hspace_4                   (abs)        400F
__Hstack                     stack        0000
__Hstrings                   strings      0000
__Hstringtext                stringtext   0000
__Htext                      text         0000
__Labs1                      abs1         0000
__Lbank0                     bank0        0000
__Lbank1                     bank1        0000
__Lbank2                     bank2        0000
__Lbank3                     bank3        0000
__LbssBANK0                  bssBANK0     0000
__Lcinit                     cinit        07EC
__Lclrtext                   clrtext      0000
__Lcode                      code         0000
__Lcommon                    common       0000
__Lconfig                    config       0000
__LcstackBANK0               cstackBANK0  0000
__LcstackCOMMON              cstackCOMMON 0000
__LdataBANK0                 dataBANK0    0000
__Leeprom_data               eeprom_data  0000
__Lend_init                  end_init     0000
__Lfunctab                   functab      0000
__LidataBANK0                idataBANK0   0000
__Linit                      init         0000
__Linittext                  inittext     0000
__Lintentry                  intentry     0000
__Lmaintext                  maintext     0000
__Lpowerup                   powerup      0000
__Lram                       ram          0000
__Lreset_vec                 reset_vec    0000
__Lsfr0                      sfr0         0000
__Lsfr1                      sfr1         0000
__Lsfr2                      sfr2         0000
__Lsfr3                      sfr3         0000
__Lspace_0                   (abs)        0000
__Lspace_1                   (abs)        0000
__Lspace_2                   (abs)        0000
__Lspace_3                   (abs)        0000
__Lspace_4                   (abs)        0000
__Lstack                     stack        0000
__Lstrings                   strings      0000
__Lstringtext                stringtext   0000
__Ltext                      text         0000
__S0                         (abs)        0A93
__S1                         (abs)        007C
__S2                         (abs)        0000
__S3                         (abs)        0000
___int_sp                    stack        0000
___latbits                   (abs)        0002
___sp                        stack        0000
___stackhi                   (abs)        0000
___stacklo                   (abs)        0000
___wmul                      text12       0341
___wmul@multiplicand         cstackCOMMON 0072
___wmul@multiplier           cstackCOMMON 0070
___wmul@product              cstackCOMMON 0074
__end_of_ASCII               stringtext   0A58
__end_of___wmul              text12       0366
__end_of__initialization     cinit        07FC
__end_of__stringtab          stringtext   0812
__end_of_gpio_init           text13       02E0
__end_of_loading_down_form   text6        05C0
__end_of_loading_up_form     text5        06BF
__end_of_main                maintext     04C1
__end_of_nokia5110_5x8_puts  text7        07EC
__end_of_nokia5110_cmd       text10       02EB
__end_of_nokia5110_cursor    text9        0394
__end_of_nokia5110_init      text2        03C7
__end_of_nokia5110_reset     text4        031E
__end_of_set_home_from       text1        043E
__end_of_spi_byte            text8        02F7
__end_of_spi_init            text3        0310
__end_of_spi_put             text11       032E
__initialization             cinit        07EC
__pbssBANK0                  bssBANK0     0045
__pcstackBANK0               cstackBANK0  0020
__pcstackCOMMON              cstackCOMMON 0070
__pdataBANK0                 dataBANK0    0039
__pidataBANK0                idataBANK0   02F7
__pmaintext                  maintext     043E
__pstringtext                stringtext   0800
__ptext1                     text1        03C7
__ptext10                    text10       02E0
__ptext11                    text11       031E
__ptext12                    text12       0341
__ptext13                    text13       02DB
__ptext2                     text2        0394
__ptext3                     text3        0303
__ptext4                     text4        0310
__ptext5                     text5        05C0
__ptext6                     text6        04C1
__ptext7                     text7        06BF
__ptext8                     text8        02EB
__ptext9                     text9        0366
__size_of___wmul             (abs)        0000
__size_of_gpio_init          (abs)        0000
__size_of_loading_down_form  (abs)        0000
__size_of_loading_up_form    (abs)        0000
__size_of_main               (abs)        0000
__size_of_nokia5110_5x8_puts (abs)        0000
__size_of_nokia5110_cmd      (abs)        0000
__size_of_nokia5110_cursor   (abs)        0000
__size_of_nokia5110_init     (abs)        0000
__size_of_nokia5110_reset    (abs)        0000
__size_of_set_home_from      (abs)        0000
__size_of_spi_byte           (abs)        0000
__size_of_spi_init           (abs)        0000
__size_of_spi_put            (abs)        0000
__stringbase                 stringtext   0812
__stringtab                  stringtext   0800
_gpio_init                   text13       02DB
_index_home                  bssBANK0     0045
_loading_down_form           text6        04C1
_loading_up_form             text5        05C0
_main                        maintext     043E
_menu                        dataBANK0    0039
_nokia5110_5x8_puts          text7        06BF
_nokia5110_cmd               text10       02E0
_nokia5110_cursor            text9        0366
_nokia5110_init              text2        0394
_nokia5110_reset             text4        0310
_set_home_from               text1        03C7
_spi_byte                    text8        02EB
_spi_init                    text3        0303
_spi_put                     text11       031E
btemp                        (abs)        007E
end_of_initialization        cinit        07FC
init_fetch0                  inittext     032E
init_ram0                    inittext     0332
intlevel0                    functab      0000
intlevel1                    functab      0000
intlevel2                    functab      0000
intlevel3                    functab      0000
intlevel4                    functab      0000
intlevel5                    functab      0000
nokia5110_5x8_puts@bg        cstackBANK0  0026
nokia5110_5x8_puts@buff      cstackBANK0  0031
nokia5110_5x8_puts@data      cstackBANK0  0024
nokia5110_5x8_puts@i         cstackBANK0  0032
nokia5110_5x8_puts@j         cstackBANK0  0034
nokia5110_5x8_puts@start_col cstackBANK0  0022
nokia5110_5x8_puts@start_row cstackBANK0  0020
nokia5110_cmd@cmd            cstackCOMMON 0071
nokia5110_cursor@col         cstackCOMMON 0078
nokia5110_cursor@i           cstackCOMMON 007A
nokia5110_cursor@row         cstackCOMMON 0076
reset_vec                    reset_vec    0000
spi_byte@data                cstackCOMMON 0070
spi_put@data                 cstackCOMMON 0070
start                        init         0000
start_initialization         cinit        07EC
wtemp0                       (abs)        007E


MODULE INFORMATION

Module		Function		Class		Link	Load	Size
Lib/Src/spi.c
		_spi_init      		CODE           	0303	0000	13
		_spi_byte      		CODE           	02EB	0000	12
		_spi_put       		CODE           	031E	0000	16

Lib/Src/spi.c estimated size: 41

shared
		__stringtab    		STRCODE        	0800	0000	18
		_ASCII         		STRCODE        	0812	0000	582
		__initialization		CODE           	07EC	0000	16

shared estimated size: 616

Lib/Src/nokia5110.c
		_nokia5110_cmd 		CODE           	02E0	0000	11
		_nokia5110_cursor		CODE           	0366	0000	46
		_nokia5110_init		CODE           	0394	0000	51
		_nokia5110_reset		CODE           	0310	0000	14
		_nokia5110_5x8_puts		CODE           	06BF	0000	301

Lib/Src/nokia5110.c estimated size: 423

C:\Program Files\Microchip\xc8\v2.32\pic\sources\c90\common\Umul16.c
		___wmul        		CODE           	0341	0000	37

C:\Program Files\Microchip\xc8\v2.32\pic\sources\c90\common\Umul16.c estimated size: 37

main.c
		_main          		CODE           	043E	0000	131
		_loading_down_form		CODE           	04C1	0000	255
		_loading_up_form		CODE           	05C0	0000	255
		_gpio_init     		CODE           	02DB	0000	5
		_set_home_from 		CODE           	03C7	0000	119

main.c estimated size: 765

